target datalayout = "e-m:e-p270:32:32-p271:32:32-p272:64:64-i64:64-i128:128-f80:128-n8:16:32:64-S128"
target triple = "x86_64-pc-linux-gnu"

@h263P_handle = internal global ptr null, align 8
@proto_register_h263P.ett = internal global [4 x ptr] [ptr @ett_h263P, ptr @ett_h263P_extra_hdr, ptr @ett_h263P_payload, ptr @ett_h263P_data], align 16
@.str.33 = private unnamed_addr constant [56 x i8] c"ITU-T Recommendation H.263 RTP Payload header (RFC4629)\00", align 1
@.str.34 = private unnamed_addr constant [7 x i8] c"H.263P\00", align 1
@.str.35 = private unnamed_addr constant [6 x i8] c"h263p\00", align 1
@proto_h263P = internal global i32 0, align 4
@.str.36 = private unnamed_addr constant [21 x i8] c"dynamic.payload.type\00", align 1
@.str.37 = private unnamed_addr constant [6 x i8] c"h263P\00", align 1

; Function Attrs: null_pointer_is_valid sspstrong uwtable
define hidden void @proto_register_h263P() #0 {
  %1 = alloca ptr, align 8
  call void @llvm.lifetime.start.p0(i64 8, ptr %1) #3
  %2 = call i32 @proto_register_protocol(ptr noundef @.str.33, ptr noundef @.str.34, ptr noundef @.str.35)
  store i32 %2, ptr @proto_h263P, align 4
  %3 = load i32, ptr @proto_h263P, align 4
  call void @proto_register_field_array(i32 noundef %3, ptr noundef @proto_register_h263P.hf, i32 noundef 10)
  call void @proto_register_subtree_array(ptr noundef @proto_register_h263P.ett, i32 noundef 4)
  %4 = load i32, ptr @proto_h263P, align 4
  %5 = call ptr @prefs_register_protocol(i32 noundef %4, ptr noundef null)
  store ptr %5, ptr %1, align 8
  %6 = load ptr, ptr %1, align 8
  call void @prefs_register_obsolete_preference(ptr noundef %6, ptr noundef @.str.36)
  %7 = load i32, ptr @proto_h263P, align 4
  %8 = call ptr @register_dissector(ptr noundef @.str.37, ptr noundef @dissect_h263P, i32 noundef %7)
  store ptr %8, ptr @h263P_handle, align 8
  call void @llvm.lifetime.end.p0(i64 8, ptr %1) #3
  ret void
}