; Function Attrs: null_pointer_is_valid sspstrong uwtable
define hidden void @proto_register_h263P() local_unnamed_addr #0 {
  %1 = tail call i32 @proto_register_protocol(ptr noundef nonnull @.str.33, ptr noundef nonnull @.str.34, ptr noundef nonnull @.str.35)
  store i32 %1, ptr @proto_h263P, align 4
  tail call void @proto_register_field_array(i32 noundef %1, ptr noundef nonnull @proto_register_h263P.hf, i32 noundef 10)
  tail call void @proto_register_subtree_array(ptr noundef nonnull @proto_register_h263P.ett, i32 noundef 4)
  %2 = load i32, ptr @proto_h263P, align 4
  %3 = tail call ptr @prefs_register_protocol(i32 noundef %2, ptr noundef null)
  tail call void @prefs_register_obsolete_preference(ptr noundef %3, ptr noundef nonnull @.str.36)
  %4 = load i32, ptr @proto_h263P, align 4
  %5 = tail call ptr @register_dissector(ptr noundef nonnull @.str.37, ptr noundef nonnull @dissect_h263P, i32 noundef %4)
  store ptr %5, ptr @h263P_handle, align 8
  ret void
}